target datalayout = "e-m:e-p270:32:32-p271:32:32-p272:64:64-i64:64-i128:128-f80:128-n8:16:32:64-S128"
target triple = "x86_64-pc-linux-gnu"

%struct.ReorderBuffer = type { ptr, %struct.dlist_head, %struct.dlist_head, %struct.dclist_head, i32, ptr, ptr, ptr, ptr, ptr, ptr, ptr, ptr, ptr, ptr, ptr, ptr, ptr, ptr, ptr, ptr, ptr, ptr, ptr, ptr, i8, ptr, ptr, ptr, ptr, i64, ptr, i64, i64, ptr, i64, i64, i64, i64, i64, i64, i64, i64 }
%struct.dlist_head = type { %struct.dlist_node }
%struct.dlist_node = type { ptr, ptr }
%struct.dclist_head = type { %struct.dlist_head, i32 }
%struct.ReorderBufferTXN = type { i32, i32, i32, ptr, i64, i64, i64, ptr, i64, i16, i64, %union.anon.4, ptr, i64, %struct.dlist_node, ptr, i32, i64, i64, %struct.dlist_head, %struct.dlist_head, i64, ptr, ptr, %struct.dlist_head, i32, i32, ptr, %struct.dlist_node, %struct.dlist_node, %struct.pairingheap_node, i64, i64, ptr }
%union.anon.4 = type { i64 }
%struct.pairingheap_node = type { ptr, ptr, ptr }

@CheckXidAlive = external global i32, align 4

; Function Attrs: nounwind uwtable
define internal void @ReorderBufferStreamCommit(ptr noundef %0, ptr noundef %1) #0 {
  %3 = alloca ptr, align 8
  %4 = alloca ptr, align 8
  store ptr %0, ptr %3, align 8
  store ptr %1, ptr %4, align 8
  %5 = load ptr, ptr %3, align 8
  %6 = load ptr, ptr %4, align 8
  call void @ReorderBufferStreamTXN(ptr noundef %5, ptr noundef %6)
  %7 = load ptr, ptr %4, align 8
  %8 = getelementptr inbounds nuw %struct.ReorderBufferTXN, ptr %7, i32 0, i32 0
  %9 = load i32, ptr %8, align 8
  %10 = and i32 %9, 64
  %11 = icmp ne i32 %10, 0
  br i1 %11, label %12, label %27

12:                                               ; preds = %2
  %13 = load ptr, ptr %3, align 8
  %14 = getelementptr inbounds nuw %struct.ReorderBuffer, ptr %13, i32 0, i32 18
  %15 = load ptr, ptr %14, align 8
  %16 = load ptr, ptr %3, align 8
  %17 = load ptr, ptr %4, align 8
  %18 = load ptr, ptr %4, align 8
  %19 = getelementptr inbounds nuw %struct.ReorderBufferTXN, ptr %18, i32 0, i32 5
  %20 = load i64, ptr %19, align 8
  call void %15(ptr noundef %16, ptr noundef %17, i64 noundef %20)
  %21 = load ptr, ptr %4, align 8
  %22 = getelementptr inbounds nuw %struct.ReorderBufferTXN, ptr %21, i32 0, i32 0
  %23 = load i32, ptr %22, align 8
  %24 = or i32 %23, 512
  store i32 %24, ptr %22, align 8
  %25 = load ptr, ptr %3, align 8
  %26 = load ptr, ptr %4, align 8
  call void @ReorderBufferTruncateTXN(ptr noundef %25, ptr noundef %26, i1 noundef zeroext true)
  store i32 0, ptr @CheckXidAlive, align 4
  br label %38

27:                                               ; preds = %2
  %28 = load ptr, ptr %3, align 8
  %29 = getelementptr inbounds nuw %struct.ReorderBuffer, ptr %28, i32 0, i32 19
  %30 = load ptr, ptr %29, align 8
  %31 = load ptr, ptr %3, align 8
  %32 = load ptr, ptr %4, align 8
  %33 = load ptr, ptr %4, align 8
  %34 = getelementptr inbounds nuw %struct.ReorderBufferTXN, ptr %33, i32 0, i32 5
  %35 = load i64, ptr %34, align 8
  call void %30(ptr noundef %31, ptr noundef %32, i64 noundef %35)
  %36 = load ptr, ptr %3, align 8
  %37 = load ptr, ptr %4, align 8
  call void @ReorderBufferCleanupTXN(ptr noundef %36, ptr noundef %37)
  br label %38

38:                                               ; preds = %27, %12
  ret void
}

; Function Attrs: nounwind uwtable
define internal void @ReorderBufferReplay(ptr noundef %0, ptr noundef %1, i32 noundef %2, i64 noundef %3, i64 noundef %4, i64 noundef %5, i16 noundef zeroext %6, i64 noundef %7) #0 {
  %9 = alloca ptr, align 8
  %10 = alloca ptr, align 8
  %11 = alloca i32, align 4
  %12 = alloca i64, align 8
  %13 = alloca i64, align 8
  %14 = alloca i64, align 8
  %15 = alloca i16, align 2
  %16 = alloca i64, align 8
  %17 = alloca ptr, align 8
  %18 = alloca i32, align 4
  %19 = alloca i32, align 4
  store ptr %0, ptr %9, align 8
  store ptr %1, ptr %10, align 8
  store i32 %2, ptr %11, align 4
  store i64 %3, ptr %12, align 8
  store i64 %4, ptr %13, align 8
  store i64 %5, ptr %14, align 8
  store i16 %6, ptr %15, align 2
  store i64 %7, ptr %16, align 8
  call void @llvm.lifetime.start.p0(i64 8, ptr %17) #13
  call void @llvm.lifetime.start.p0(i64 4, ptr %18) #13
  store i32 0, ptr %18, align 4
  %20 = load i64, ptr %12, align 8
  %21 = load ptr, ptr %9, align 8
  %22 = getelementptr inbounds nuw %struct.ReorderBufferTXN, ptr %21, i32 0, i32 5
  store i64 %20, ptr %22, align 8
  %23 = load i64, ptr %13, align 8
  %24 = load ptr, ptr %9, align 8
  %25 = getelementptr inbounds nuw %struct.ReorderBufferTXN, ptr %24, i32 0, i32 6
  store i64 %23, ptr %25, align 8
  %26 = load i64, ptr %14, align 8
  %27 = load ptr, ptr %9, align 8
  %28 = getelementptr inbounds nuw %struct.ReorderBufferTXN, ptr %27, i32 0, i32 11
  store i64 %26, ptr %28, align 8
  %29 = load i16, ptr %15, align 2
  %30 = load ptr, ptr %9, align 8
  %31 = getelementptr inbounds nuw %struct.ReorderBufferTXN, ptr %30, i32 0, i32 9
  store i16 %29, ptr %31, align 8
  %32 = load i64, ptr %16, align 8
  %33 = load ptr, ptr %9, align 8
  %34 = getelementptr inbounds nuw %struct.ReorderBufferTXN, ptr %33, i32 0, i32 10
  store i64 %32, ptr %34, align 8
  %35 = load ptr, ptr %9, align 8
  %36 = getelementptr inbounds nuw %struct.ReorderBufferTXN, ptr %35, i32 0, i32 0
  %37 = load i32, ptr %36, align 8
  %38 = and i32 %37, 16
  %39 = icmp ne i32 %38, 0
  br i1 %39, label %40, label %43

40:                                               ; preds = %8
  %41 = load ptr, ptr %10, align 8
  %42 = load ptr, ptr %9, align 8
  call void @ReorderBufferStreamCommit(ptr noundef %41, ptr noundef %42)
  store i32 1, ptr %19, align 4
  br label %67

43:                                               ; preds = %8
  %44 = load ptr, ptr %9, align 8
  %45 = getelementptr inbounds nuw %struct.ReorderBufferTXN, ptr %44, i32 0, i32 12
  %46 = load ptr, ptr %45, align 8
  %47 = icmp eq ptr %46, null
  br i1 %47, label %48, label %58

48:                                               ; preds = %43
  %49 = load ptr, ptr %9, align 8
  %50 = getelementptr inbounds nuw %struct.ReorderBufferTXN, ptr %49, i32 0, i32 0
  %51 = load i32, ptr %50, align 8
  %52 = and i32 %51, 64
  %53 = icmp ne i32 %52, 0
  br i1 %53, label %57, label %54

54:                                               ; preds = %48
  %55 = load ptr, ptr %10, align 8
  %56 = load ptr, ptr %9, align 8
  call void @ReorderBufferCleanupTXN(ptr noundef %55, ptr noundef %56)
  br label %57

57:                                               ; preds = %54, %48
  store i32 1, ptr %19, align 4
  br label %67

58:                                               ; preds = %43
  %59 = load ptr, ptr %9, align 8
  %60 = getelementptr inbounds nuw %struct.ReorderBufferTXN, ptr %59, i32 0, i32 12
  %61 = load ptr, ptr %60, align 8
  store ptr %61, ptr %17, align 8
  %62 = load ptr, ptr %10, align 8
  %63 = load ptr, ptr %9, align 8
  %64 = load i64, ptr %12, align 8
  %65 = load ptr, ptr %17, align 8
  %66 = load i32, ptr %18, align 4
  call void @ReorderBufferProcessTXN(ptr noundef %62, ptr noundef %63, i64 noundef %64, ptr noundef %65, i32 noundef %66, i1 noundef zeroext false)
  store i32 0, ptr %19, align 4
  br label %67

67:                                               ; preds = %58, %57, %40
  call void @llvm.lifetime.end.p0(i64 4, ptr %18) #13
  call void @llvm.lifetime.end.p0(i64 8, ptr %17) #13
  %68 = load i32, ptr %19, align 4
  switch i32 %68, label %70 [
    i32 0, label %69
    i32 1, label %69
  ]

69:                                               ; preds = %67, %67
  ret void

70:                                               ; preds = %67
  unreachable
}