; Function Attrs: nounwind uwtable
define internal fastcc void @ReorderBufferReplay(ptr noundef nonnull initializes((32, 48), (64, 66), (72, 88)) %0, ptr noundef %1, i64 noundef %2, i64 noundef %3, i64 noundef %4, i16 noundef zeroext %5, i64 noundef %6) unnamed_addr #0 {
  %8 = getelementptr inbounds nuw i8, ptr %0, i64 32
  store i64 %2, ptr %8, align 8
  %9 = getelementptr inbounds nuw i8, ptr %0, i64 40
  store i64 %3, ptr %9, align 8
  %10 = getelementptr inbounds nuw i8, ptr %0, i64 80
  store i64 %4, ptr %10, align 8
  %11 = getelementptr inbounds nuw i8, ptr %0, i64 64
  store i16 %5, ptr %11, align 8
  %12 = getelementptr inbounds nuw i8, ptr %0, i64 72
  store i64 %6, ptr %12, align 8
  %13 = load i32, ptr %0, align 8
  %14 = and i32 %13, 16
  %.not = icmp eq i32 %14, 0
  br i1 %.not, label %27, label %15

15:                                               ; preds = %7
  tail call fastcc void @ReorderBufferStreamTXN(ptr noundef %1, ptr noundef nonnull %0)
  %16 = load i32, ptr %0, align 8
  %17 = and i32 %16, 64
  %.not.i = icmp eq i32 %17, 0
  %18 = load i64, ptr %8, align 8
  br i1 %.not.i, label %24, label %19

19:                                               ; preds = %15
  %20 = getelementptr inbounds nuw i8, ptr %1, i64 176
  %21 = load ptr, ptr %20, align 8
  tail call void %21(ptr noundef %1, ptr noundef nonnull %0, i64 noundef %18) #19
  %22 = load i32, ptr %0, align 8
  %23 = or i32 %22, 512
  store i32 %23, ptr %0, align 8
  tail call fastcc void @ReorderBufferTruncateTXN(ptr noundef %1, ptr noundef nonnull %0, i1 noundef zeroext true)
  store i32 0, ptr @CheckXidAlive, align 4
  br label %ReorderBufferStreamCommit.exit

24:                                               ; preds = %15
  %25 = getelementptr inbounds nuw i8, ptr %1, i64 184
  %26 = load ptr, ptr %25, align 8
  tail call void %26(ptr noundef %1, ptr noundef nonnull %0, i64 noundef %18) #19
  tail call fastcc void @ReorderBufferCleanupTXN(ptr noundef %1, ptr noundef nonnull %0)
  br label %ReorderBufferStreamCommit.exit

27:                                               ; preds = %7
  %28 = getelementptr inbounds nuw i8, ptr %0, i64 88
  %29 = load ptr, ptr %28, align 8
  %30 = icmp eq ptr %29, null
  br i1 %30, label %31, label %34

31:                                               ; preds = %27
  %32 = and i32 %13, 64
  %.not22 = icmp eq i32 %32, 0
  br i1 %.not22, label %33, label %ReorderBufferStreamCommit.exit

33:                                               ; preds = %31
  tail call fastcc void @ReorderBufferCleanupTXN(ptr noundef %1, ptr noundef nonnull %0)
  br label %ReorderBufferStreamCommit.exit

34:                                               ; preds = %27
  tail call fastcc void @ReorderBufferProcessTXN(ptr noundef %1, ptr noundef nonnull %0, i64 noundef %2, ptr noundef nonnull %29, i32 noundef 0, i1 noundef zeroext false)
  br label %ReorderBufferStreamCommit.exit

ReorderBufferStreamCommit.exit:                   ; preds = %24, %19, %31, %33, %34
  ret void
}